(dp0
S'tagprogress'
p1
(dp2
S'/Users/threv/Downloads/Music/Alva Noto'
p3
S'/Users/threv/Downloads/Music/Alva Noto/Transvision'
p4
sS'/Users/threv/Downloads/Music/Enduser'
p5
S'/Users/threv/Downloads/Music/Enduser/1_3'
p6
ss.